target datalayout = "e-m:e-p270:32:32-p271:32:32-p272:64:64-i64:64-i128:128-f80:128-n8:16:32:64-S128"
target triple = "x86_64-pc-linux-gnu"

%"class.google::protobuf::internal::SerialArena" = type { ptr, ptr, ptr, ptr, ptr, ptr, ptr, ptr, ptr }
%"struct.google::protobuf::internal::SerialArena::CleanupChunk" = type { i64, ptr, [1 x %"struct.google::protobuf::internal::SerialArena::CleanupNode"] }
%"struct.google::protobuf::internal::SerialArena::CleanupNode" = type { ptr, ptr }

; Function Attrs: mustprogress uwtable
define void @_ZN6google8protobuf8internal11SerialArena19CleanupListFallbackEv(ptr noundef nonnull align 8 dereferenceable(72) %0) #7 align 2 {
  %2 = alloca ptr, align 8
  %3 = alloca i64, align 8
  %4 = alloca ptr, align 8
  %5 = alloca ptr, align 8
  %6 = alloca i64, align 8
  %7 = alloca i32, align 4
  store ptr %0, ptr %2, align 8, !tbaa !62
  %8 = load ptr, ptr %2, align 8
  call void @llvm.lifetime.start.p0(i64 8, ptr %3) #3
  %9 = getelementptr inbounds nuw %"class.google::protobuf::internal::SerialArena", ptr %8, i32 0, i32 7
  %10 = load ptr, ptr %9, align 8, !tbaa !79
  %11 = getelementptr inbounds nuw %"class.google::protobuf::internal::SerialArena", ptr %8, i32 0, i32 3
  %12 = load ptr, ptr %11, align 8, !tbaa !78
  %13 = getelementptr inbounds nuw %"struct.google::protobuf::internal::SerialArena::CleanupChunk", ptr %12, i32 0, i32 2
  %14 = getelementptr inbounds [1 x %"struct.google::protobuf::internal::SerialArena::CleanupNode"], ptr %13, i64 0, i64 0
  %15 = ptrtoint ptr %10 to i64
  %16 = ptrtoint ptr %14 to i64
  %17 = sub i64 %15, %16
  %18 = sdiv exact i64 %17, 16
  store i64 %18, ptr %3, align 8, !tbaa !7
  call void @llvm.lifetime.start.p0(i64 8, ptr %4) #3
  %19 = getelementptr inbounds nuw %"class.google::protobuf::internal::SerialArena", ptr %8, i32 0, i32 3
  %20 = load ptr, ptr %19, align 8, !tbaa !78
  store ptr %20, ptr %4, align 8, !tbaa !107
  br label %21

21:                                               ; preds = %60, %1
  br label %22

22:                                               ; preds = %21
  call void @llvm.lifetime.start.p0(i64 8, ptr %5) #3
  %23 = load ptr, ptr %4, align 8, !tbaa !107
  %24 = getelementptr inbounds nuw %"struct.google::protobuf::internal::SerialArena::CleanupChunk", ptr %23, i32 0, i32 2
  %25 = getelementptr inbounds [1 x %"struct.google::protobuf::internal::SerialArena::CleanupNode"], ptr %24, i64 0, i64 0
  store ptr %25, ptr %5, align 8, !tbaa !120
  call void @llvm.lifetime.start.p0(i64 8, ptr %6) #3
  %26 = load i64, ptr %3, align 8, !tbaa !7
  store i64 %26, ptr %6, align 8, !tbaa !7
  br label %27

27:                                               ; preds = %44, %22
  %28 = load i64, ptr %6, align 8, !tbaa !7
  %29 = icmp ugt i64 %28, 0
  br i1 %29, label %31, label %30

30:                                               ; preds = %27
  call void @llvm.lifetime.end.p0(i64 8, ptr %6) #3
  br label %47

31:                                               ; preds = %27
  %32 = load ptr, ptr %5, align 8, !tbaa !120
  %33 = load i64, ptr %6, align 8, !tbaa !7
  %34 = sub i64 %33, 1
  %35 = getelementptr inbounds nuw %"struct.google::protobuf::internal::SerialArena::CleanupNode", ptr %32, i64 %34
  %36 = getelementptr inbounds nuw %"struct.google::protobuf::internal::SerialArena::CleanupNode", ptr %35, i32 0, i32 1
  %37 = load ptr, ptr %36, align 8, !tbaa !113
  %38 = load ptr, ptr %5, align 8, !tbaa !120
  %39 = load i64, ptr %6, align 8, !tbaa !7
  %40 = sub i64 %39, 1
  %41 = getelementptr inbounds nuw %"struct.google::protobuf::internal::SerialArena::CleanupNode", ptr %38, i64 %40
  %42 = getelementptr inbounds nuw %"struct.google::protobuf::internal::SerialArena::CleanupNode", ptr %41, i32 0, i32 0
  %43 = load ptr, ptr %42, align 8, !tbaa !111
  call void %37(ptr noundef %43)
  br label %44

44:                                               ; preds = %31
  %45 = load i64, ptr %6, align 8, !tbaa !7
  %46 = add i64 %45, -1
  store i64 %46, ptr %6, align 8, !tbaa !7
  br label %27, !llvm.loop !121

47:                                               ; preds = %30
  %48 = load ptr, ptr %4, align 8, !tbaa !107
  %49 = getelementptr inbounds nuw %"struct.google::protobuf::internal::SerialArena::CleanupChunk", ptr %48, i32 0, i32 1
  %50 = load ptr, ptr %49, align 8, !tbaa !108
  store ptr %50, ptr %4, align 8, !tbaa !107
  %51 = load ptr, ptr %4, align 8, !tbaa !107
  %52 = icmp eq ptr %51, null
  br i1 %52, label %53, label %54

53:                                               ; preds = %47
  store i32 3, ptr %7, align 4
  br label %58

54:                                               ; preds = %47
  %55 = load ptr, ptr %4, align 8, !tbaa !107
  %56 = getelementptr inbounds nuw %"struct.google::protobuf::internal::SerialArena::CleanupChunk", ptr %55, i32 0, i32 0
  %57 = load i64, ptr %56, align 8, !tbaa !105
  store i64 %57, ptr %3, align 8, !tbaa !7
  store i32 0, ptr %7, align 4
  br label %58

58:                                               ; preds = %54, %53
  call void @llvm.lifetime.end.p0(i64 8, ptr %5) #3
  %59 = load i32, ptr %7, align 4
  switch i32 %59, label %62 [
    i32 0, label %60
    i32 3, label %61
  ]

60:                                               ; preds = %58
  br label %21, !llvm.loop !122

61:                                               ; preds = %58
  call void @llvm.lifetime.end.p0(i64 8, ptr %4) #3
  call void @llvm.lifetime.end.p0(i64 8, ptr %3) #3
  ret void

62:                                               ; preds = %58
  unreachable
}

; Function Attrs: mustprogress uwtable
define void @_ZN6google8protobuf8internal11SerialArena11CleanupListEv(ptr noundef nonnull align 8 dereferenceable(72) %0) #7 align 2 {
  %2 = alloca ptr, align 8
  store ptr %0, ptr %2, align 8, !tbaa !62
  %3 = load ptr, ptr %2, align 8
  %4 = getelementptr inbounds nuw %"class.google::protobuf::internal::SerialArena", ptr %3, i32 0, i32 3
  %5 = load ptr, ptr %4, align 8, !tbaa !78
  %6 = icmp ne ptr %5, null
  br i1 %6, label %7, label %8

7:                                                ; preds = %1
  call void @_ZN6google8protobuf8internal11SerialArena19CleanupListFallbackEv(ptr noundef nonnull align 8 dereferenceable(72) %3)
  br label %8

8:                                                ; preds = %7, %1
  ret void
}