; Function Attrs: mustprogress uwtable
define void @_ZN6google8protobuf8internal11SerialArena11CleanupListEv(ptr noundef nonnull readonly align 8 captures(none) dereferenceable(72) %0) local_unnamed_addr #6 align 2 {
  %2 = getelementptr inbounds nuw i8, ptr %0, i64 24
  %3 = load ptr, ptr %2, align 8, !tbaa !53
  %.not = icmp eq ptr %3, null
  br i1 %.not, label %_ZN6google8protobuf8internal11SerialArena19CleanupListFallbackEv.exit, label %4

4:                                                ; preds = %1
  %5 = getelementptr inbounds nuw i8, ptr %0, i64 56
  %6 = load ptr, ptr %5, align 8, !tbaa !54
  %7 = getelementptr inbounds nuw i8, ptr %3, i64 16
  %8 = ptrtoint ptr %6 to i64
  %9 = ptrtoint ptr %7 to i64
  %10 = sub i64 %8, %9
  %11 = ashr exact i64 %10, 4
  br label %12

12:                                               ; preds = %21, %4
  %.014.i = phi ptr [ %3, %4 ], [ %14, %21 ]
  %.013.i = phi i64 [ %11, %4 ], [ %22, %21 ]
  %.not19.i = icmp eq i64 %.013.i, 0
  br i1 %.not19.i, label %._crit_edge.i, label %.lr.ph.i

._crit_edge.i:                                    ; preds = %.lr.ph.i, %12
  %13 = getelementptr inbounds nuw i8, ptr %.014.i, i64 8
  %14 = load ptr, ptr %13, align 8, !tbaa !55
  %15 = icmp eq ptr %14, null
  br i1 %15, label %_ZN6google8protobuf8internal11SerialArena19CleanupListFallbackEv.exit, label %21

.lr.ph.i:                                         ; preds = %12, %.lr.ph.i
  %.01220.i = phi i64 [ %20, %.lr.ph.i ], [ %.013.i, %12 ]
  %16 = getelementptr %"struct.google::protobuf::internal::SerialArena::CleanupNode", ptr %.014.i, i64 %.01220.i
  %17 = getelementptr inbounds nuw i8, ptr %16, i64 8
  %18 = load ptr, ptr %17, align 8, !tbaa !57
  %19 = load ptr, ptr %16, align 8, !tbaa !59
  tail call void %18(ptr noundef %19)
  %20 = add i64 %.01220.i, -1
  %.not.i = icmp eq i64 %20, 0
  br i1 %.not.i, label %._crit_edge.i, label %.lr.ph.i, !llvm.loop !60

21:                                               ; preds = %._crit_edge.i
  %22 = load i64, ptr %14, align 8, !tbaa !62
  br label %12

_ZN6google8protobuf8internal11SerialArena19CleanupListFallbackEv.exit: ; preds = %._crit_edge.i, %1
  ret void
}